target datalayout = "e-m:e-p270:32:32-p271:32:32-p272:64:64-i64:64-i128:128-f80:128-n8:16:32:64-S128"
target triple = "x86_64-pc-linux-gnu"

%"class.std::__cxx11::basic_string" = type { %"struct.std::__cxx11::basic_string<char>::_Alloc_hider", i64, %union.anon }
%"struct.std::__cxx11::basic_string<char>::_Alloc_hider" = type { ptr }
%union.anon = type { i64, [8 x i8] }
%class.TestFactory3 = type { ptr, %"class.std::__cxx11::basic_string" }

@_ZTV12TestFactory3 = linkonce_odr hidden unnamed_addr constant { [4 x ptr] } { [4 x ptr] [ptr null, ptr @_ZTI12TestFactory3, ptr @_ZN12TestFactory3D2Ev, ptr @_ZN12TestFactory3D0Ev] }, comdat, align 8
@_ZTV12TestFactory4 = linkonce_odr hidden unnamed_addr constant { [4 x ptr] } { [4 x ptr] [ptr null, ptr @_ZTI12TestFactory4, ptr @_ZN12TestFactory4D2Ev, ptr @_ZN12TestFactory4D0Ev] }, comdat, align 8

; Function Attrs: mustprogress uwtable
define linkonce_odr hidden void @_ZN12TestFactory3C2Ei(ptr noundef nonnull align 8 dereferenceable(40) %0, i32 noundef %1) unnamed_addr #1 comdat align 2 personality ptr @__gxx_personality_v0 {
  %3 = alloca ptr, align 8
  %4 = alloca i32, align 4
  %5 = alloca ptr, align 8
  %6 = alloca i32, align 4
  store ptr %0, ptr %3, align 8
  store i32 %1, ptr %4, align 4
  %7 = load ptr, ptr %3, align 8
  store ptr getelementptr inbounds ({ [4 x ptr] }, ptr @_ZTV12TestFactory3, i32 0, i32 0, i32 2), ptr %7, align 8
  %8 = getelementptr inbounds %class.TestFactory3, ptr %7, i32 0, i32 1
  %9 = load i32, ptr %4, align 4
  call void @_ZNSt7__cxx119to_stringEi(ptr dead_on_unwind writable sret(%"class.std::__cxx11::basic_string") align 8 %8, i32 noundef %9) #16
  %10 = getelementptr inbounds %class.TestFactory3, ptr %7, i32 0, i32 1
  invoke void @_Z13print_createdI12TestFactory3JRNSt7__cxx1112basic_stringIcSt11char_traitsIcESaIcEEEEEvPT_DpOT0_(ptr noundef %7, ptr noundef nonnull align 8 dereferenceable(32) %10)
          to label %11 unwind label %12

11:                                               ; preds = %2
  ret void

12:                                               ; preds = %2
  %13 = landingpad { ptr, i32 }
          cleanup
  %14 = extractvalue { ptr, i32 } %13, 0
  store ptr %14, ptr %5, align 8
  %15 = extractvalue { ptr, i32 } %13, 1
  store i32 %15, ptr %6, align 4
  call void @_ZNSt7__cxx1112basic_stringIcSt11char_traitsIcESaIcEED1Ev(ptr noundef nonnull align 8 dereferenceable(32) %8) #16
  br label %16

16:                                               ; preds = %12
  %17 = load ptr, ptr %5, align 8
  %18 = load i32, ptr %6, align 4
  %19 = insertvalue { ptr, i32 } poison, ptr %17, 0
  %20 = insertvalue { ptr, i32 } %19, i32 %18, 1
  resume { ptr, i32 } %20
}

; Function Attrs: mustprogress uwtable
define linkonce_odr hidden void @_ZN12TestFactory4C2Ei(ptr noundef nonnull align 8 dereferenceable(40) %0, i32 noundef %1) unnamed_addr #1 comdat align 2 personality ptr @__gxx_personality_v0 {
  %3 = alloca ptr, align 8
  %4 = alloca i32, align 4
  %5 = alloca ptr, align 8
  %6 = alloca i32, align 4
  store ptr %0, ptr %3, align 8
  store i32 %1, ptr %4, align 4
  %7 = load ptr, ptr %3, align 8
  %8 = load i32, ptr %4, align 4
  call void @_ZN12TestFactory3C2Ei(ptr noundef nonnull align 8 dereferenceable(40) %7, i32 noundef %8)
  store ptr getelementptr inbounds ({ [4 x ptr] }, ptr @_ZTV12TestFactory4, i32 0, i32 0, i32 2), ptr %7, align 8
  invoke void @_Z13print_createdI12TestFactory4JRiEEvPT_DpOT0_(ptr noundef %7, ptr noundef nonnull align 4 dereferenceable(4) %4)
          to label %9 unwind label %10

9:                                                ; preds = %2
  ret void

10:                                               ; preds = %2
  %11 = landingpad { ptr, i32 }
          cleanup
  %12 = extractvalue { ptr, i32 } %11, 0
  store ptr %12, ptr %5, align 8
  %13 = extractvalue { ptr, i32 } %11, 1
  store i32 %13, ptr %6, align 4
  call void @_ZN12TestFactory3D2Ev(ptr noundef nonnull align 8 dereferenceable(40) %7) #16
  br label %14

14:                                               ; preds = %10
  %15 = load ptr, ptr %5, align 8
  %16 = load i32, ptr %6, align 4
  %17 = insertvalue { ptr, i32 } poison, ptr %15, 0
  %18 = insertvalue { ptr, i32 } %17, i32 %16, 1
  resume { ptr, i32 } %18
}

; Function Attrs: mustprogress uwtable
define internal noundef ptr @"_ZZ35test_submodule_factory_constructorsRN8pybind117module_EENK3$_9clEZ35test_submodule_factory_constructorsS1_E11pointer_tagZ35test_submodule_factory_constructorsS1_E7TF4_tagi"(ptr noundef nonnull align 4 dereferenceable(4) %0, i32 noundef %1) #1 align 2 personality ptr @__gxx_personality_v0 {
  %3 = alloca ptr, align 8
  %4 = alloca i32, align 4
  %5 = alloca ptr, align 8
  %6 = alloca i32, align 4
  store ptr %0, ptr %3, align 8
  store i32 %1, ptr %4, align 4
  %7 = call noalias noundef nonnull ptr @_Znwm(i64 noundef 40) #22
  %8 = load i32, ptr %4, align 4
  invoke void @_ZN12TestFactory4C2Ei(ptr noundef nonnull align 8 dereferenceable(40) %7, i32 noundef %8)
          to label %9 unwind label %10

9:                                                ; preds = %2
  ret ptr %7

10:                                               ; preds = %2
  %11 = landingpad { ptr, i32 }
          cleanup
  %12 = extractvalue { ptr, i32 } %11, 0
  store ptr %12, ptr %5, align 8
  %13 = extractvalue { ptr, i32 } %11, 1
  store i32 %13, ptr %6, align 4
  call void @_ZdlPv(ptr noundef %7) #23
  br label %14

14:                                               ; preds = %10
  %15 = load ptr, ptr %5, align 8
  %16 = load i32, ptr %6, align 4
  %17 = insertvalue { ptr, i32 } poison, ptr %15, 0
  %18 = insertvalue { ptr, i32 } %17, i32 %16, 1
  resume { ptr, i32 } %18
}