; Function Attrs: mustprogress uwtable
define internal fastcc noundef nonnull ptr @"_ZZ35test_submodule_factory_constructorsRN8pybind117module_EENK3$_9clEZ35test_submodule_factory_constructorsS1_E11pointer_tagZ35test_submodule_factory_constructorsS1_E7TF4_tagi"(i32 noundef %0) unnamed_addr #1 align 2 personality ptr @__gxx_personality_v0 {
  %2 = alloca i32, align 4
  %3 = tail call noalias noundef nonnull dereferenceable(40) ptr @_Znwm(i64 noundef 40) #27
  call void @llvm.lifetime.start.p0(i64 4, ptr nonnull %2)
  store i32 %0, ptr %2, align 4
  store ptr getelementptr inbounds ({ [4 x ptr] }, ptr @_ZTV12TestFactory3, i64 0, i32 0, i64 2), ptr %3, align 8
  %4 = getelementptr inbounds i8, ptr %3, i64 8
  tail call void @_ZNSt7__cxx119to_stringEi(ptr dead_on_unwind nonnull writable sret(%"class.std::__cxx11::basic_string") align 8 %4, i32 noundef %0) #23
  invoke void @_Z13print_createdI12TestFactory3JRNSt7__cxx1112basic_stringIcSt11char_traitsIcESaIcEEEEEvPT_DpOT0_(ptr noundef nonnull %3, ptr noundef nonnull align 8 dereferenceable(32) %4)
          to label %_ZN12TestFactory3C2Ei.exit.i unwind label %5

5:                                                ; preds = %1
  %6 = landingpad { ptr, i32 }
          cleanup
  tail call void @_ZNSt7__cxx1112basic_stringIcSt11char_traitsIcESaIcEED1Ev(ptr noundef nonnull align 8 dereferenceable(32) %4) #23
  br label %.body

_ZN12TestFactory3C2Ei.exit.i:                     ; preds = %1
  store ptr getelementptr inbounds ({ [4 x ptr] }, ptr @_ZTV12TestFactory4, i64 0, i32 0, i64 2), ptr %3, align 8
  invoke void @_Z13print_createdI12TestFactory4JRiEEvPT_DpOT0_(ptr noundef nonnull %3, ptr noundef nonnull align 4 dereferenceable(4) %2)
          to label %9 unwind label %7

7:                                                ; preds = %_ZN12TestFactory3C2Ei.exit.i
  %8 = landingpad { ptr, i32 }
          cleanup
  call void @_ZN12TestFactory3D2Ev(ptr noundef nonnull align 8 dereferenceable(40) %3) #23
  br label %.body

9:                                                ; preds = %_ZN12TestFactory3C2Ei.exit.i
  call void @llvm.lifetime.end.p0(i64 4, ptr nonnull %2)
  ret ptr %3

.body:                                            ; preds = %5, %7
  %eh.lpad-body = phi { ptr, i32 } [ %6, %5 ], [ %8, %7 ]
  call void @_ZdlPv(ptr noundef nonnull %3) #28
  resume { ptr, i32 } %eh.lpad-body
}